target datalayout = "e-m:e-p270:32:32-p271:32:32-p272:64:64-i64:64-i128:128-f80:128-n8:16:32:64-S128"
target triple = "x86_64-unknown-linux-gnu"

%"class.icu_75::UObject" = type { ptr }
%"class.icu_75::UnicodeString" = type { %"class.icu_75::Replaceable", %"union.icu_75::UnicodeString::StackBufferOrFields" }
%"class.icu_75::Replaceable" = type { %"class.icu_75::UObject" }
%"union.icu_75::UnicodeString::StackBufferOrFields" = type { %struct.anon.0, [32 x i8] }
%struct.anon.0 = type { i16, i32, i32, ptr }
%"class.icu_75::ConstChar16Ptr" = type { ptr }
%"class.icu_75::ParsePosition" = type { %"class.icu_75::UObject", i32, i32 }

@_ZTVN6icu_757UObjectE = external unnamed_addr constant { [5 x ptr] }, align 8
@_ZTVN6icu_7513ParsePositionE = external unnamed_addr constant { [5 x ptr] }, align 8

; Function Attrs: mustprogress nounwind uwtable
define linkonce_odr void @_ZN6icu_757UObjectC2Ev(ptr noundef nonnull align 8 dereferenceable(8) %this) unnamed_addr #1 comdat align 2 {
entry:
  %this.addr = alloca ptr, align 8
  store ptr %this, ptr %this.addr, align 8
  %this1 = load ptr, ptr %this.addr, align 8
  store ptr getelementptr inbounds ({ [5 x ptr] }, ptr @_ZTVN6icu_757UObjectE, i32 0, i32 0, i32 2), ptr %this1, align 8
  ret void
}

; Function Attrs: mustprogress nounwind uwtable
define linkonce_odr noundef i32 @_ZNK6icu_7513ParsePosition8getIndexEv(ptr noundef nonnull align 8 dereferenceable(16) %this) #1 comdat align 2 {
entry:
  %this.addr = alloca ptr, align 8
  store ptr %this, ptr %this.addr, align 8
  %this1 = load ptr, ptr %this.addr, align 8
  %index = getelementptr inbounds %"class.icu_75::ParsePosition", ptr %this1, i32 0, i32 1
  %0 = load i32, ptr %index, align 8
  ret i32 %0
}

; Function Attrs: mustprogress nounwind uwtable
define linkonce_odr noundef i32 @_ZNK6icu_7513ParsePosition13getErrorIndexEv(ptr noundef nonnull align 8 dereferenceable(16) %this) #1 comdat align 2 {
entry:
  %this.addr = alloca ptr, align 8
  store ptr %this, ptr %this.addr, align 8
  %this1 = load ptr, ptr %this.addr, align 8
  %errorIndex = getelementptr inbounds %"class.icu_75::ParsePosition", ptr %this1, i32 0, i32 2
  %0 = load i32, ptr %errorIndex, align 4
  ret i32 %0
}

; Function Attrs: mustprogress nounwind uwtable
define linkonce_odr void @_ZN6icu_7513ParsePosition8setIndexEi(ptr noundef nonnull align 8 dereferenceable(16) %this, i32 noundef %offset) #1 comdat align 2 {
entry:
  %this.addr = alloca ptr, align 8
  %offset.addr = alloca i32, align 4
  store ptr %this, ptr %this.addr, align 8
  store i32 %offset, ptr %offset.addr, align 4
  %this1 = load ptr, ptr %this.addr, align 8
  %0 = load i32, ptr %offset.addr, align 4
  %index = getelementptr inbounds %"class.icu_75::ParsePosition", ptr %this1, i32 0, i32 1
  store i32 %0, ptr %index, align 8
  ret void
}

; Function Attrs: mustprogress nounwind uwtable
define linkonce_odr void @_ZN6icu_7513ParsePositionC2Ev(ptr noundef nonnull align 8 dereferenceable(16) %this) unnamed_addr #1 comdat align 2 {
entry:
  %this.addr = alloca ptr, align 8
  store ptr %this, ptr %this.addr, align 8
  %this1 = load ptr, ptr %this.addr, align 8
  %0 = getelementptr inbounds i8, ptr %this1, i64 0
  call void @llvm.memset.p0.i64(ptr align 8 %0, i8 0, i64 8, i1 false)
  call void @_ZN6icu_757UObjectC2Ev(ptr noundef nonnull align 8 dereferenceable(8) %this1) #8
  store ptr getelementptr inbounds ({ [5 x ptr] }, ptr @_ZTVN6icu_7513ParsePositionE, i32 0, i32 0, i32 2), ptr %this1, align 8
  %index = getelementptr inbounds %"class.icu_75::ParsePosition", ptr %this1, i32 0, i32 1
  store i32 0, ptr %index, align 8
  %errorIndex = getelementptr inbounds %"class.icu_75::ParsePosition", ptr %this1, i32 0, i32 2
  store i32 -1, ptr %errorIndex, align 4
  ret void
}

; Function Attrs: mustprogress nounwind uwtable
define linkonce_odr void @_ZN6icu_7514ConstChar16PtrD2Ev(ptr noundef nonnull align 8 dereferenceable(8) %this) unnamed_addr #1 comdat align 2 {
entry:
  %this.addr = alloca ptr, align 8
  store ptr %this, ptr %this.addr, align 8
  %this1 = load ptr, ptr %this.addr, align 8
  %p_ = getelementptr inbounds %"class.icu_75::ConstChar16Ptr", ptr %this1, i32 0, i32 0
  %0 = load ptr, ptr %p_, align 8
  call void asm sideeffect "", "rm,~{memory},~{dirflag},~{fpsr},~{flags}"(ptr %0) #8, !srcloc !5
  ret void
}

; Function Attrs: mustprogress nounwind uwtable
define linkonce_odr void @_ZN6icu_7514ConstChar16PtrC2EPKDs(ptr noundef nonnull align 8 dereferenceable(8) %this, ptr noundef %p) unnamed_addr #1 comdat align 2 {
entry:
  %this.addr = alloca ptr, align 8
  %p.addr = alloca ptr, align 8
  store ptr %this, ptr %this.addr, align 8
  store ptr %p, ptr %p.addr, align 8
  %this1 = load ptr, ptr %this.addr, align 8
  %p_ = getelementptr inbounds %"class.icu_75::ConstChar16Ptr", ptr %this1, i32 0, i32 0
  %0 = load ptr, ptr %p.addr, align 8
  store ptr %0, ptr %p_, align 8
  ret void
}

; Function Attrs: mustprogress nounwind uwtable
define internal noundef signext i8 @_ZL9U_FAILURE10UErrorCode(i32 noundef %code) #1 {
entry:
  %code.addr = alloca i32, align 4
  store i32 %code, ptr %code.addr, align 4
  %0 = load i32, ptr %code.addr, align 4
  %cmp = icmp sgt i32 %0, 0
  %conv = zext i1 %cmp to i8
  ret i8 %conv
}

; Function Attrs: mustprogress uwtable
define internal void @_ZL8parseResRN6icu_7511FormattableEPKPvPKDsiPiP10UErrorCode(ptr noundef nonnull align 8 dereferenceable(112) %res, ptr noundef %fmt, ptr noundef %text, i32 noundef %textLength, ptr noundef %parsePos, ptr noundef %status) #0 personality ptr @__gxx_personality_v0 {
entry:
  %res.addr = alloca ptr, align 8
  %fmt.addr = alloca ptr, align 8
  %text.addr = alloca ptr, align 8
  %textLength.addr = alloca i32, align 4
  %parsePos.addr = alloca ptr, align 8
  %status.addr = alloca ptr, align 8
  %src = alloca %"class.icu_75::UnicodeString", align 8
  %agg.tmp = alloca %"class.icu_75::ConstChar16Ptr", align 8
  %exn.slot = alloca ptr, align 8
  %ehselector.slot = alloca i32, align 4
  %pp = alloca %"class.icu_75::ParsePosition", align 8
  store ptr %res, ptr %res.addr, align 8
  store ptr %fmt, ptr %fmt.addr, align 8
  store ptr %text, ptr %text.addr, align 8
  store i32 %textLength, ptr %textLength.addr, align 4
  store ptr %parsePos, ptr %parsePos.addr, align 8
  store ptr %status, ptr %status.addr, align 8
  %0 = load ptr, ptr %status.addr, align 8
  %1 = load i32, ptr %0, align 4
  %call = call noundef signext i8 @_ZL9U_FAILURE10UErrorCode(i32 noundef %1)
  %tobool = icmp ne i8 %call, 0
  br i1 %tobool, label %if.then, label %if.end

if.then:                                          ; preds = %entry
  br label %return

if.end:                                           ; preds = %entry
  %2 = load i32, ptr %textLength.addr, align 4
  %cmp = icmp eq i32 %2, -1
  %conv = zext i1 %cmp to i8
  %3 = load ptr, ptr %text.addr, align 8
  call void @_ZN6icu_7514ConstChar16PtrC2EPKDs(ptr noundef nonnull align 8 dereferenceable(8) %agg.tmp, ptr noundef %3)
  %4 = load i32, ptr %textLength.addr, align 4
  invoke void @_ZN6icu_7513UnicodeStringC1EaNS_14ConstChar16PtrEi(ptr noundef nonnull align 8 dereferenceable(64) %src, i8 noundef signext %conv, ptr noundef %agg.tmp, i32 noundef %4)
          to label %invoke.cont unwind label %lpad

invoke.cont:                                      ; preds = %if.end
  call void @_ZN6icu_7514ConstChar16PtrD2Ev(ptr noundef nonnull align 8 dereferenceable(8) %agg.tmp) #8
  invoke void @_ZN6icu_7513ParsePositionC2Ev(ptr noundef nonnull align 8 dereferenceable(16) %pp)
          to label %invoke.cont2 unwind label %lpad1

invoke.cont2:                                     ; preds = %invoke.cont
  %5 = load ptr, ptr %parsePos.addr, align 8
  %cmp3 = icmp ne ptr %5, null
  br i1 %cmp3, label %if.then4, label %if.end7

if.then4:                                         ; preds = %invoke.cont2
  %6 = load ptr, ptr %parsePos.addr, align 8
  %7 = load i32, ptr %6, align 4
  invoke void @_ZN6icu_7513ParsePosition8setIndexEi(ptr noundef nonnull align 8 dereferenceable(16) %pp, i32 noundef %7)
          to label %invoke.cont6 unwind label %lpad5

invoke.cont6:                                     ; preds = %if.then4
  br label %if.end7

lpad:                                             ; preds = %if.end
  %8 = landingpad { ptr, i32 }
          cleanup
  %9 = extractvalue { ptr, i32 } %8, 0
  store ptr %9, ptr %exn.slot, align 8
  %10 = extractvalue { ptr, i32 } %8, 1
  store i32 %10, ptr %ehselector.slot, align 4
  call void @_ZN6icu_7514ConstChar16PtrD2Ev(ptr noundef nonnull align 8 dereferenceable(8) %agg.tmp) #8
  br label %eh.resume

lpad1:                                            ; preds = %invoke.cont
  %11 = landingpad { ptr, i32 }
          cleanup
  %12 = extractvalue { ptr, i32 } %11, 0
  store ptr %12, ptr %exn.slot, align 8
  %13 = extractvalue { ptr, i32 } %11, 1
  store i32 %13, ptr %ehselector.slot, align 4
  br label %ehcleanup

lpad5:                                            ; preds = %if.then19, %if.then14, %invoke.cont8, %if.end7, %if.then4
  %14 = landingpad { ptr, i32 }
          cleanup
  %15 = extractvalue { ptr, i32 } %14, 0
  store ptr %15, ptr %exn.slot, align 8
  %16 = extractvalue { ptr, i32 } %14, 1
  store i32 %16, ptr %ehselector.slot, align 4
  call void @_ZN6icu_7513ParsePositionD1Ev(ptr noundef nonnull align 8 dereferenceable(16) %pp) #8
  br label %ehcleanup

if.end7:                                          ; preds = %invoke.cont6, %invoke.cont2
  %17 = load ptr, ptr %fmt.addr, align 8
  %18 = load ptr, ptr %res.addr, align 8
  %vtable = load ptr, ptr %17, align 8
  %vfn = getelementptr inbounds ptr, ptr %vtable, i64 20
  %19 = load ptr, ptr %vfn, align 8
  invoke void %19(ptr noundef nonnull align 8 dereferenceable(356) %17, ptr noundef nonnull align 8 dereferenceable(64) %src, ptr noundef nonnull align 8 dereferenceable(112) %18, ptr noundef nonnull align 8 dereferenceable(16) %pp)
          to label %invoke.cont8 unwind label %lpad5

invoke.cont8:                                     ; preds = %if.end7
  %call10 = invoke noundef i32 @_ZNK6icu_7513ParsePosition13getErrorIndexEv(ptr noundef nonnull align 8 dereferenceable(16) %pp)
          to label %invoke.cont9 unwind label %lpad5

invoke.cont9:                                     ; preds = %invoke.cont8
  %cmp11 = icmp ne i32 %call10, -1
  br i1 %cmp11, label %if.then12, label %if.else

if.then12:                                        ; preds = %invoke.cont9
  %20 = load ptr, ptr %status.addr, align 8
  store i32 9, ptr %20, align 4
  %21 = load ptr, ptr %parsePos.addr, align 8
  %cmp13 = icmp ne ptr %21, null
  br i1 %cmp13, label %if.then14, label %if.end17

if.then14:                                        ; preds = %if.then12
  %call16 = invoke noundef i32 @_ZNK6icu_7513ParsePosition13getErrorIndexEv(ptr noundef nonnull align 8 dereferenceable(16) %pp)
          to label %invoke.cont15 unwind label %lpad5

invoke.cont15:                                    ; preds = %if.then14
  %22 = load ptr, ptr %parsePos.addr, align 8
  store i32 %call16, ptr %22, align 4
  br label %if.end17

if.end17:                                         ; preds = %invoke.cont15, %if.then12
  br label %if.end23

if.else:                                          ; preds = %invoke.cont9
  %23 = load ptr, ptr %parsePos.addr, align 8
  %cmp18 = icmp ne ptr %23, null
  br i1 %cmp18, label %if.then19, label %if.end22

if.then19:                                        ; preds = %if.else
  %call21 = invoke noundef i32 @_ZNK6icu_7513ParsePosition8getIndexEv(ptr noundef nonnull align 8 dereferenceable(16) %pp)
          to label %invoke.cont20 unwind label %lpad5

invoke.cont20:                                    ; preds = %if.then19
  %24 = load ptr, ptr %parsePos.addr, align 8
  store i32 %call21, ptr %24, align 4
  br label %if.end22

if.end22:                                         ; preds = %invoke.cont20, %if.else
  br label %if.end23

if.end23:                                         ; preds = %if.end22, %if.end17
  call void @_ZN6icu_7513ParsePositionD1Ev(ptr noundef nonnull align 8 dereferenceable(16) %pp) #8
  call void @_ZN6icu_7513UnicodeStringD1Ev(ptr noundef nonnull align 8 dereferenceable(64) %src) #8
  br label %return

return:                                           ; preds = %if.end23, %if.then
  ret void

ehcleanup:                                        ; preds = %lpad5, %lpad1
  call void @_ZN6icu_7513UnicodeStringD1Ev(ptr noundef nonnull align 8 dereferenceable(64) %src) #8
  br label %eh.resume

eh.resume:                                        ; preds = %ehcleanup, %lpad
  %exn = load ptr, ptr %exn.slot, align 8
  %sel = load i32, ptr %ehselector.slot, align 4
  %lpad.val = insertvalue { ptr, i32 } poison, ptr %exn, 0
  %lpad.val24 = insertvalue { ptr, i32 } %lpad.val, i32 %sel, 1
  resume { ptr, i32 } %lpad.val24
}