; Function Attrs: mustprogress uwtable
define internal fastcc void @_ZL8parseResRN6icu_7511FormattableEPKPvPKDsiPiP10UErrorCode(ptr noundef nonnull align 8 dereferenceable(112) %res, ptr noundef %fmt, ptr noundef %text, i32 noundef %textLength, ptr noundef %parsePos, ptr nocapture noundef %status) unnamed_addr #0 personality ptr @__gxx_personality_v0 {
entry:
  %src = alloca %"class.icu_75::UnicodeString", align 8
  %agg.tmp = alloca %"class.icu_75::ConstChar16Ptr", align 8
  %pp = alloca %"class.icu_75::ParsePosition", align 8
  %0 = load i32, ptr %status, align 4
  %cmp.i = icmp slt i32 %0, 1
  br i1 %cmp.i, label %if.end, label %return

if.end:                                           ; preds = %entry
  %cmp = icmp eq i32 %textLength, -1
  %conv = zext i1 %cmp to i8
  store ptr %text, ptr %agg.tmp, align 8
  invoke void @_ZN6icu_7513UnicodeStringC1EaNS_14ConstChar16PtrEi(ptr noundef nonnull align 8 dereferenceable(64) %src, i8 noundef signext %conv, ptr noundef nonnull %agg.tmp, i32 noundef %textLength)
          to label %invoke.cont unwind label %lpad

invoke.cont:                                      ; preds = %if.end
  %1 = load ptr, ptr %agg.tmp, align 8
  call void asm sideeffect "", "rm,~{memory},~{dirflag},~{fpsr},~{flags}"(ptr %1) #10, !srcloc !5
  store ptr getelementptr inbounds ({ [5 x ptr] }, ptr @_ZTVN6icu_7513ParsePositionE, i64 0, i32 0, i64 2), ptr %pp, align 8
  %index.i = getelementptr inbounds i8, ptr %pp, i64 8
  store i32 0, ptr %index.i, align 8
  %errorIndex.i = getelementptr inbounds i8, ptr %pp, i64 12
  store i32 -1, ptr %errorIndex.i, align 4
  %cmp3.not = icmp eq ptr %parsePos, null
  br i1 %cmp3.not, label %if.end7, label %if.then4

if.then4:                                         ; preds = %invoke.cont
  %2 = load i32, ptr %parsePos, align 4
  store i32 %2, ptr %index.i, align 8
  br label %if.end7

lpad:                                             ; preds = %if.end
  %3 = landingpad { ptr, i32 }
          cleanup
  %4 = load ptr, ptr %agg.tmp, align 8
  call void asm sideeffect "", "rm,~{memory},~{dirflag},~{fpsr},~{flags}"(ptr %4) #10, !srcloc !5
  br label %eh.resume

lpad5:                                            ; preds = %if.end7
  %5 = landingpad { ptr, i32 }
          cleanup
  call void @_ZN6icu_7513ParsePositionD1Ev(ptr noundef nonnull align 8 dereferenceable(16) %pp) #10
  call void @_ZN6icu_7513UnicodeStringD1Ev(ptr noundef nonnull align 8 dereferenceable(64) %src) #10
  br label %eh.resume

if.end7:                                          ; preds = %if.then4, %invoke.cont
  %vtable = load ptr, ptr %fmt, align 8
  %vfn = getelementptr inbounds i8, ptr %vtable, i64 160
  %6 = load ptr, ptr %vfn, align 8
  invoke void %6(ptr noundef nonnull align 8 dereferenceable(356) %fmt, ptr noundef nonnull align 8 dereferenceable(64) %src, ptr noundef nonnull align 8 dereferenceable(112) %res, ptr noundef nonnull align 8 dereferenceable(16) %pp)
          to label %invoke.cont8 unwind label %lpad5

invoke.cont8:                                     ; preds = %if.end7
  %7 = load i32, ptr %errorIndex.i, align 4
  %cmp11.not = icmp eq i32 %7, -1
  br i1 %cmp11.not, label %if.else, label %if.then12

if.then12:                                        ; preds = %invoke.cont8
  store i32 9, ptr %status, align 4
  br i1 %cmp3.not, label %if.end23, label %if.end23.sink.split

if.else:                                          ; preds = %invoke.cont8
  br i1 %cmp3.not, label %if.end23, label %if.then19

if.then19:                                        ; preds = %if.else
  %8 = load i32, ptr %index.i, align 8
  br label %if.end23.sink.split

if.end23.sink.split:                              ; preds = %if.then12, %if.then19
  %.sink = phi i32 [ %8, %if.then19 ], [ %7, %if.then12 ]
  store i32 %.sink, ptr %parsePos, align 4
  br label %if.end23

if.end23:                                         ; preds = %if.end23.sink.split, %if.else, %if.then12
  call void @_ZN6icu_7513ParsePositionD1Ev(ptr noundef nonnull align 8 dereferenceable(16) %pp) #10
  call void @_ZN6icu_7513UnicodeStringD1Ev(ptr noundef nonnull align 8 dereferenceable(64) %src) #10
  br label %return

return:                                           ; preds = %entry, %if.end23
  ret void

eh.resume:                                        ; preds = %lpad5, %lpad
  %.pn = phi { ptr, i32 } [ %5, %lpad5 ], [ %3, %lpad ]
  resume { ptr, i32 } %.pn
}